; Function Attrs: mustprogress uwtable
define void @_ZNK3net10SpdyFramer38SerializeHeaderBlockWithoutCompressionEPNS_16SpdyFrameBuilderERKNS_15SpdyHeaderBlockE(ptr noundef nonnull readnone align 8 captures(none) dereferenceable(259) %0, ptr noundef nonnull %1, ptr noundef nonnull readonly align 8 captures(address) dereferenceable(88) %2) local_unnamed_addr #0 align 2 personality ptr @__gxx_personality_v0 {
  %4 = alloca i32, align 4
  %5 = getelementptr inbounds nuw i8, ptr %2, i64 72
  %6 = load i64, ptr %5, align 8, !tbaa !151
  %7 = trunc i64 %6 to i32
  call void @llvm.lifetime.start.p0(i64 4, ptr nonnull %4)
  %8 = tail call noundef i32 @llvm.bswap.i32(i32 %7)
  store i32 %8, ptr %4, align 4, !tbaa !118
  %9 = call noundef zeroext i1 @_ZN3net16SpdyFrameBuilder10WriteBytesEPKvj(ptr noundef nonnull align 8 dereferenceable(36) %1, ptr noundef nonnull %4, i32 noundef 4)
  call void @llvm.lifetime.end.p0(i64 4, ptr nonnull %4)
  %10 = getelementptr inbounds nuw i8, ptr %2, i64 56
  %.sroa.09.012 = load ptr, ptr %10, align 8, !tbaa !146
  %.not13 = icmp eq ptr %.sroa.09.012, %10
  br i1 %.not13, label %._crit_edge, label %.lr.ph

._crit_edge:                                      ; preds = %.lr.ph, %3
  ret void

.lr.ph:                                           ; preds = %3, %.lr.ph
  %.sroa.09.014 = phi ptr [ %.sroa.09.0, %.lr.ph ], [ %.sroa.09.012, %3 ]
  %11 = getelementptr inbounds nuw i8, ptr %.sroa.09.014, i64 16
  %12 = call noundef zeroext i1 @_ZN3net16SpdyFrameBuilder18WriteStringPiece32ERKN4base16BasicStringPieceINSt7__cxx1112basic_stringIcSt11char_traitsIcESaIcEEEEE(ptr noundef nonnull align 8 dereferenceable(36) %1, ptr noundef nonnull align 8 dereferenceable(16) %11)
  %13 = getelementptr inbounds nuw i8, ptr %.sroa.09.014, i64 32
  %14 = call noundef zeroext i1 @_ZN3net16SpdyFrameBuilder18WriteStringPiece32ERKN4base16BasicStringPieceINSt7__cxx1112basic_stringIcSt11char_traitsIcESaIcEEEEE(ptr noundef nonnull align 8 dereferenceable(36) %1, ptr noundef nonnull align 8 dereferenceable(16) %13)
  %.sroa.09.0 = load ptr, ptr %.sroa.09.014, align 8, !tbaa !146
  %.not = icmp eq ptr %.sroa.09.0, %10
  br i1 %.not, label %._crit_edge, label %.lr.ph
}